target datalayout = "e-m:e-p270:32:32-p271:32:32-p272:64:64-i64:64-i128:128-f80:128-n8:16:32:64-S128"
target triple = "x86_64-pc-linux-gnu"

; Function Attrs: mustprogress nounwind uwtable
define hidden noundef i32 @_ZN12vmIntrinsics17predicates_neededE13vmIntrinsicID(i32 noundef %0) #1 align 2 {
  %2 = alloca i32, align 4
  %3 = alloca i32, align 4
  store i32 %0, ptr %3, align 4
  %4 = load i32, ptr %3, align 4
  switch i32 %4, label %7 [
    i32 171, label %5
    i32 172, label %5
    i32 173, label %5
    i32 174, label %5
    i32 175, label %5
    i32 176, label %5
    i32 182, label %6
  ]

5:                                                ; preds = %1, %1, %1, %1, %1, %1
  store i32 1, ptr %2, align 4
  br label %8

6:                                                ; preds = %1
  store i32 5, ptr %2, align 4
  br label %8

7:                                                ; preds = %1
  store i32 0, ptr %2, align 4
  br label %8

8:                                                ; preds = %7, %6, %5
  %9 = load i32, ptr %2, align 4
  ret i32 %9
}