; Function Attrs: mustprogress nofree norecurse nosync nounwind willreturn memory(none) uwtable
define hidden noundef range(i32 0, 6) i32 @_ZN12vmIntrinsics17predicates_neededE13vmIntrinsicID(i32 noundef %0) local_unnamed_addr #0 align 2 {
  %switch.tableidx = add i32 %0, -171
  %2 = icmp ult i32 %switch.tableidx, 12
  br i1 %2, label %switch.lookup, label %4

switch.lookup:                                    ; preds = %1
  %3 = zext nneg i32 %switch.tableidx to i64
  %switch.gep = getelementptr inbounds [12 x i32], ptr @switch.table._ZN12vmIntrinsics17predicates_neededE13vmIntrinsicID, i64 0, i64 %3
  %switch.load = load i32, ptr %switch.gep, align 4
  br label %4

4:                                                ; preds = %1, %switch.lookup
  %.0 = phi i32 [ %switch.load, %switch.lookup ], [ 0, %1 ]
  ret i32 %.0
}